target datalayout = "e-m:e-p270:32:32-p271:32:32-p272:64:64-i64:64-i128:128-f80:128-n8:16:32:64-S128"
target triple = "x86_64-pc-linux-gnu"

%struct.Muxer = type { %struct.OutputFile, [32 x i8], ptr, ptr, i32, ptr, i32, ptr, ptr, i64, i64, i32, ptr, ptr }
%struct.OutputFile = type { ptr, i32, ptr, ptr, i32, i64, i64, i32 }
%struct.AVPacket = type { ptr, i64, i64, ptr, i32, i32, i32, ptr, i32, i64, i64, ptr, ptr, %struct.AVRational }
%struct.AVRational = type { i32, i32 }
%struct.OutputStream = type { ptr, i32, ptr, i32, ptr, ptr, ptr, i32, i32, i32, %struct.AVRational, %struct.KeyframeForceCtx, ptr, ptr, ptr, ptr, ptr, i64, i32, %struct.EncStats, %struct.EncStats, i32 }
%struct.KeyframeForceCtx = type { i32, i64, ptr, i32, i32, ptr, [5 x double], i32 }
%struct.EncStats = type { ptr, i32, ptr, %union.pthread_mutex_t, i32 }
%union.pthread_mutex_t = type { %struct.__pthread_mutex_s }
%struct.__pthread_mutex_s = type { i32, i32, i32, i32, i32, i16, i16, %struct.__pthread_internal_list }
%struct.__pthread_internal_list = type { ptr, ptr }
%struct.MuxStream = type { %struct.OutputStream, ptr, [32 x i8], ptr, ptr, ptr, %struct.EncStats, i32, i32, i32, i32, i64, i64, i64, i64, %struct.AVRational, i64, i64, i32, i32, i32, i32, %struct.AVRational, %struct.AVRational, i32, ptr }
%struct.AVBSFContext = type { ptr, ptr, ptr, ptr, ptr, %struct.AVRational, %struct.AVRational }
%struct.AVStream = type { ptr, i32, i32, ptr, ptr, %struct.AVRational, i64, i64, i64, i32, i32, %struct.AVRational, ptr, %struct.AVRational, %struct.AVPacket, i32, %struct.AVRational, i32 }
%struct.AVCodecContext = type { ptr, i32, i32, ptr, i32, i32, ptr, ptr, ptr, i64, i32, i32, ptr, i32, %struct.AVRational, %struct.AVRational, %struct.AVRational, i32, i32, i32, i32, i32, %struct.AVRational, i32, i32, i32, i32, i32, i32, i32, i32, i32, i32, i32, ptr, ptr, i32, float, float, float, float, float, float, float, float, float, i32, i32, i32, i32, i32, i32, i32, i32, i32, i32, i32, i32, ptr, ptr, ptr, i32, i32, i32, i32, i32, i32, i32, i32, i32, i32, %struct.AVChannelLayout, i32, i32, i32, i32, i32, i32, i32, i32, ptr, i32, i32, i32, float, float, i32, i32, i32, i32, i32, ptr, i64, i64, float, float, i32, i32, ptr, ptr, i32, i32, i32, i32, i32, ptr, ptr, ptr, ptr, i32, i32, [8 x i64], i32, i32, i32, i32, i32, i32, i32, ptr, ptr, i32, i32, i32, i32, i32, i32, i32, i32, i32, i32, ptr, ptr, i32, i32, ptr, ptr, ptr, ptr, i32, i32, i64, i32, i32, i64, ptr, i64, ptr, i32, ptr, i32 }
%struct.AVChannelLayout = type { i32, i32, %union.anon, ptr }
%union.anon = type { i64 }
%struct.AVBitStreamFilter = type { ptr, ptr, ptr }

@.str.8 = private unnamed_addr constant [56 x i8] c"Error initializing the output stream codec parameters.\0A\00", align 1
@.str.34 = private unnamed_addr constant [41 x i8] c"Error initializing bitstream filter: %s\0A\00", align 1

; Function Attrs: nounwind uwtable
define internal i32 @bsf_init(ptr noundef %0) #0 {
  %2 = alloca i32, align 4
  %3 = alloca ptr, align 8
  %4 = alloca ptr, align 8
  %5 = alloca ptr, align 8
  %6 = alloca i32, align 4
  %7 = alloca i32, align 4
  store ptr %0, ptr %3, align 8, !tbaa !75
  call void @llvm.lifetime.start.p0(i64 8, ptr %4) #10
  %8 = load ptr, ptr %3, align 8, !tbaa !75
  %9 = getelementptr inbounds nuw %struct.MuxStream, ptr %8, i32 0, i32 0
  store ptr %9, ptr %4, align 8, !tbaa !38
  call void @llvm.lifetime.start.p0(i64 8, ptr %5) #10
  %10 = load ptr, ptr %3, align 8, !tbaa !75
  %11 = getelementptr inbounds nuw %struct.MuxStream, ptr %10, i32 0, i32 3
  %12 = load ptr, ptr %11, align 8, !tbaa !86
  store ptr %12, ptr %5, align 8, !tbaa !113
  call void @llvm.lifetime.start.p0(i64 4, ptr %6) #10
  %13 = load ptr, ptr %5, align 8, !tbaa !113
  %14 = icmp ne ptr %13, null
  br i1 %14, label %25, label %15

15:                                               ; preds = %1
  %16 = load ptr, ptr %4, align 8, !tbaa !38
  %17 = getelementptr inbounds nuw %struct.OutputStream, ptr %16, i32 0, i32 5
  %18 = load ptr, ptr %17, align 8, !tbaa !104
  %19 = getelementptr inbounds nuw %struct.AVStream, ptr %18, i32 0, i32 3
  %20 = load ptr, ptr %19, align 8, !tbaa !114
  %21 = load ptr, ptr %3, align 8, !tbaa !75
  %22 = getelementptr inbounds nuw %struct.MuxStream, ptr %21, i32 0, i32 1
  %23 = load ptr, ptr %22, align 8, !tbaa !110
  %24 = call i32 @avcodec_parameters_copy(ptr noundef %20, ptr noundef %23)
  store i32 %24, ptr %2, align 4
  store i32 1, ptr %7, align 4
  br label %86

25:                                               ; preds = %1
  %26 = load ptr, ptr %5, align 8, !tbaa !113
  %27 = getelementptr inbounds nuw %struct.AVBSFContext, ptr %26, i32 0, i32 3
  %28 = load ptr, ptr %27, align 8, !tbaa !115
  %29 = load ptr, ptr %3, align 8, !tbaa !75
  %30 = getelementptr inbounds nuw %struct.MuxStream, ptr %29, i32 0, i32 1
  %31 = load ptr, ptr %30, align 8, !tbaa !110
  %32 = call i32 @avcodec_parameters_copy(ptr noundef %28, ptr noundef %31)
  store i32 %32, ptr %6, align 4, !tbaa !12
  %33 = load i32, ptr %6, align 4, !tbaa !12
  %34 = icmp slt i32 %33, 0
  br i1 %34, label %35, label %37

35:                                               ; preds = %25
  %36 = load i32, ptr %6, align 4, !tbaa !12
  store i32 %36, ptr %2, align 4
  store i32 1, ptr %7, align 4
  br label %86

37:                                               ; preds = %25
  %38 = load ptr, ptr %5, align 8, !tbaa !113
  %39 = getelementptr inbounds nuw %struct.AVBSFContext, ptr %38, i32 0, i32 5
  %40 = load ptr, ptr %4, align 8, !tbaa !38
  %41 = getelementptr inbounds nuw %struct.OutputStream, ptr %40, i32 0, i32 5
  %42 = load ptr, ptr %41, align 8, !tbaa !104
  %43 = getelementptr inbounds nuw %struct.AVStream, ptr %42, i32 0, i32 5
  call void @llvm.memcpy.p0.p0.i64(ptr align 8 %39, ptr align 8 %43, i64 8, i1 false), !tbaa.struct !80
  %44 = load ptr, ptr %5, align 8, !tbaa !113
  %45 = call i32 @av_bsf_init(ptr noundef %44)
  store i32 %45, ptr %6, align 4, !tbaa !12
  %46 = load i32, ptr %6, align 4, !tbaa !12
  %47 = icmp slt i32 %46, 0
  br i1 %47, label %48, label %56

48:                                               ; preds = %37
  %49 = load ptr, ptr %3, align 8, !tbaa !75
  %50 = load ptr, ptr %5, align 8, !tbaa !113
  %51 = getelementptr inbounds nuw %struct.AVBSFContext, ptr %50, i32 0, i32 1
  %52 = load ptr, ptr %51, align 8, !tbaa !118
  %53 = getelementptr inbounds nuw %struct.AVBitStreamFilter, ptr %52, i32 0, i32 0
  %54 = load ptr, ptr %53, align 8, !tbaa !119
  call void (ptr, i32, ptr, ...) @av_log(ptr noundef %49, i32 noundef 16, ptr noundef @.str.34, ptr noundef %54)
  %55 = load i32, ptr %6, align 4, !tbaa !12
  store i32 %55, ptr %2, align 4
  store i32 1, ptr %7, align 4
  br label %86

56:                                               ; preds = %37
  %57 = load ptr, ptr %4, align 8, !tbaa !38
  %58 = getelementptr inbounds nuw %struct.OutputStream, ptr %57, i32 0, i32 5
  %59 = load ptr, ptr %58, align 8, !tbaa !104
  %60 = getelementptr inbounds nuw %struct.AVStream, ptr %59, i32 0, i32 3
  %61 = load ptr, ptr %60, align 8, !tbaa !114
  %62 = load ptr, ptr %5, align 8, !tbaa !113
  %63 = getelementptr inbounds nuw %struct.AVBSFContext, ptr %62, i32 0, i32 4
  %64 = load ptr, ptr %63, align 8, !tbaa !121
  %65 = call i32 @avcodec_parameters_copy(ptr noundef %61, ptr noundef %64)
  store i32 %65, ptr %6, align 4, !tbaa !12
  %66 = load i32, ptr %6, align 4, !tbaa !12
  %67 = icmp slt i32 %66, 0
  br i1 %67, label %68, label %70

68:                                               ; preds = %56
  %69 = load i32, ptr %6, align 4, !tbaa !12
  store i32 %69, ptr %2, align 4
  store i32 1, ptr %7, align 4
  br label %86

70:                                               ; preds = %56
  %71 = load ptr, ptr %4, align 8, !tbaa !38
  %72 = getelementptr inbounds nuw %struct.OutputStream, ptr %71, i32 0, i32 5
  %73 = load ptr, ptr %72, align 8, !tbaa !104
  %74 = getelementptr inbounds nuw %struct.AVStream, ptr %73, i32 0, i32 5
  %75 = load ptr, ptr %5, align 8, !tbaa !113
  %76 = getelementptr inbounds nuw %struct.AVBSFContext, ptr %75, i32 0, i32 6
  call void @llvm.memcpy.p0.p0.i64(ptr align 8 %74, ptr align 8 %76, i64 8, i1 false), !tbaa.struct !80
  %77 = call ptr @av_packet_alloc()
  %78 = load ptr, ptr %3, align 8, !tbaa !75
  %79 = getelementptr inbounds nuw %struct.MuxStream, ptr %78, i32 0, i32 4
  store ptr %77, ptr %79, align 8, !tbaa !88
  %80 = load ptr, ptr %3, align 8, !tbaa !75
  %81 = getelementptr inbounds nuw %struct.MuxStream, ptr %80, i32 0, i32 4
  %82 = load ptr, ptr %81, align 8, !tbaa !88
  %83 = icmp ne ptr %82, null
  br i1 %83, label %85, label %84

84:                                               ; preds = %70
  store i32 -12, ptr %2, align 4
  store i32 1, ptr %7, align 4
  br label %86

85:                                               ; preds = %70
  store i32 0, ptr %2, align 4
  store i32 1, ptr %7, align 4
  br label %86

86:                                               ; preds = %85, %84, %68, %48, %35, %15
  call void @llvm.lifetime.end.p0(i64 4, ptr %6) #10
  call void @llvm.lifetime.end.p0(i64 8, ptr %5) #10
  call void @llvm.lifetime.end.p0(i64 8, ptr %4) #10
  %87 = load i32, ptr %2, align 4
  ret i32 %87
}

; Function Attrs: inlinehint nounwind uwtable
define internal ptr @ms_from_ost(ptr noundef %0) #4 {
  %2 = alloca ptr, align 8
  store ptr %0, ptr %2, align 8, !tbaa !38
  %3 = load ptr, ptr %2, align 8, !tbaa !38
  ret ptr %3
}

; Function Attrs: nounwind uwtable
define internal ptr @mux_from_of(ptr noundef %0) #0 {
  %2 = alloca ptr, align 8
  store ptr %0, ptr %2, align 8, !tbaa !10
  %3 = load ptr, ptr %2, align 8, !tbaa !10
  ret ptr %3
}

; Function Attrs: nounwind uwtable
define i32 @of_stream_init(ptr noundef %0, ptr noundef %1, ptr noundef %2) #0 {
  %4 = alloca i32, align 4
  %5 = alloca ptr, align 8
  %6 = alloca ptr, align 8
  %7 = alloca ptr, align 8
  %8 = alloca ptr, align 8
  %9 = alloca ptr, align 8
  %10 = alloca i32, align 4
  %11 = alloca %struct.AVRational, align 4
  %12 = alloca %struct.AVRational, align 4
  %13 = alloca i32, align 4
  store ptr %0, ptr %5, align 8, !tbaa !10
  store ptr %1, ptr %6, align 8, !tbaa !38
  store ptr %2, ptr %7, align 8, !tbaa !102
  call void @llvm.lifetime.start.p0(i64 8, ptr %8) #10
  %14 = load ptr, ptr %5, align 8, !tbaa !10
  %15 = call ptr @mux_from_of(ptr noundef %14)
  store ptr %15, ptr %8, align 8, !tbaa !8
  call void @llvm.lifetime.start.p0(i64 8, ptr %9) #10
  %16 = load ptr, ptr %6, align 8, !tbaa !38
  %17 = call ptr @ms_from_ost(ptr noundef %16)
  store ptr %17, ptr %9, align 8, !tbaa !75
  call void @llvm.lifetime.start.p0(i64 4, ptr %10) #10
  %18 = load ptr, ptr %7, align 8, !tbaa !102
  %19 = icmp ne ptr %18, null
  br i1 %19, label %20, label %72

20:                                               ; preds = %3
  %21 = load ptr, ptr %6, align 8, !tbaa !38
  %22 = getelementptr inbounds nuw %struct.OutputStream, ptr %21, i32 0, i32 5
  %23 = load ptr, ptr %22, align 8, !tbaa !104
  %24 = getelementptr inbounds nuw %struct.AVStream, ptr %23, i32 0, i32 5
  %25 = getelementptr inbounds nuw %struct.AVRational, ptr %24, i32 0, i32 0
  %26 = load i32, ptr %25, align 8, !tbaa !105
  %27 = icmp sle i32 %26, 0
  br i1 %27, label %36, label %28

28:                                               ; preds = %20
  %29 = load ptr, ptr %6, align 8, !tbaa !38
  %30 = getelementptr inbounds nuw %struct.OutputStream, ptr %29, i32 0, i32 5
  %31 = load ptr, ptr %30, align 8, !tbaa !104
  %32 = getelementptr inbounds nuw %struct.AVStream, ptr %31, i32 0, i32 5
  %33 = getelementptr inbounds nuw %struct.AVRational, ptr %32, i32 0, i32 1
  %34 = load i32, ptr %33, align 4, !tbaa !107
  %35 = icmp sle i32 %34, 0
  br i1 %35, label %36, label %48

36:                                               ; preds = %28, %20
  %37 = load ptr, ptr %6, align 8, !tbaa !38
  %38 = getelementptr inbounds nuw %struct.OutputStream, ptr %37, i32 0, i32 5
  %39 = load ptr, ptr %38, align 8, !tbaa !104
  %40 = getelementptr inbounds nuw %struct.AVStream, ptr %39, i32 0, i32 5
  call void @llvm.lifetime.start.p0(i64 8, ptr %11) #10
  %41 = load ptr, ptr %7, align 8, !tbaa !102
  %42 = getelementptr inbounds nuw %struct.AVCodecContext, ptr %41, i32 0, i32 14
  %43 = getelementptr inbounds nuw %struct.AVRational, ptr %12, i32 0, i32 0
  store i32 0, ptr %43, align 4, !tbaa !108
  %44 = getelementptr inbounds nuw %struct.AVRational, ptr %12, i32 0, i32 1
  store i32 1, ptr %44, align 4, !tbaa !109
  %45 = load i64, ptr %42, align 4
  %46 = load i64, ptr %12, align 4
  %47 = call i64 @av_add_q(i64 %45, i64 %46) #12
  store i64 %47, ptr %11, align 4
  call void @llvm.memcpy.p0.p0.i64(ptr align 8 %40, ptr align 4 %11, i64 8, i1 false), !tbaa.struct !80
  call void @llvm.lifetime.end.p0(i64 8, ptr %11) #10
  br label %48

48:                                               ; preds = %36, %28
  %49 = load ptr, ptr %6, align 8, !tbaa !38
  %50 = getelementptr inbounds nuw %struct.OutputStream, ptr %49, i32 0, i32 5
  %51 = load ptr, ptr %50, align 8, !tbaa !104
  %52 = getelementptr inbounds nuw %struct.AVStream, ptr %51, i32 0, i32 13
  %53 = load ptr, ptr %7, align 8, !tbaa !102
  %54 = getelementptr inbounds nuw %struct.AVCodecContext, ptr %53, i32 0, i32 16
  call void @llvm.memcpy.p0.p0.i64(ptr align 8 %52, ptr align 4 %54, i64 8, i1 false), !tbaa.struct !80
  %55 = load ptr, ptr %6, align 8, !tbaa !38
  %56 = getelementptr inbounds nuw %struct.OutputStream, ptr %55, i32 0, i32 5
  %57 = load ptr, ptr %56, align 8, !tbaa !104
  %58 = getelementptr inbounds nuw %struct.AVStream, ptr %57, i32 0, i32 11
  %59 = load ptr, ptr %7, align 8, !tbaa !102
  %60 = getelementptr inbounds nuw %struct.AVCodecContext, ptr %59, i32 0, i32 22
  call void @llvm.memcpy.p0.p0.i64(ptr align 8 %58, ptr align 8 %60, i64 8, i1 false), !tbaa.struct !80
  %61 = load ptr, ptr %9, align 8, !tbaa !75
  %62 = getelementptr inbounds nuw %struct.MuxStream, ptr %61, i32 0, i32 1
  %63 = load ptr, ptr %62, align 8, !tbaa !110
  %64 = load ptr, ptr %7, align 8, !tbaa !102
  %65 = call i32 @avcodec_parameters_from_context(ptr noundef %63, ptr noundef %64)
  store i32 %65, ptr %10, align 4, !tbaa !12
  %66 = load i32, ptr %10, align 4, !tbaa !12
  %67 = icmp slt i32 %66, 0
  br i1 %67, label %68, label %71

68:                                               ; preds = %48
  %69 = load ptr, ptr %6, align 8, !tbaa !38
  call void (ptr, i32, ptr, ...) @av_log(ptr noundef %69, i32 noundef 8, ptr noundef @.str.8)
  %70 = load i32, ptr %10, align 4, !tbaa !12
  store i32 %70, ptr %4, align 4
  store i32 1, ptr %13, align 4
  br label %118

71:                                               ; preds = %48
  br label %72

72:                                               ; preds = %71, %3
  %73 = load ptr, ptr %9, align 8, !tbaa !75
  %74 = call i32 @bsf_init(ptr noundef %73)
  store i32 %74, ptr %10, align 4, !tbaa !12
  %75 = load i32, ptr %10, align 4, !tbaa !12
  %76 = icmp slt i32 %75, 0
  br i1 %76, label %77, label %79

77:                                               ; preds = %72
  %78 = load i32, ptr %10, align 4, !tbaa !12
  store i32 %78, ptr %4, align 4
  store i32 1, ptr %13, align 4
  br label %118

79:                                               ; preds = %72
  %80 = load ptr, ptr %9, align 8, !tbaa !75
  %81 = getelementptr inbounds nuw %struct.MuxStream, ptr %80, i32 0, i32 14
  %82 = load i64, ptr %81, align 8, !tbaa !111
  %83 = icmp ne i64 %82, 0
  br i1 %83, label %84, label %101

84:                                               ; preds = %79
  %85 = load ptr, ptr %9, align 8, !tbaa !75
  %86 = getelementptr inbounds nuw %struct.MuxStream, ptr %85, i32 0, i32 14
  %87 = load i64, ptr %86, align 8, !tbaa !111
  %88 = load ptr, ptr %9, align 8, !tbaa !75
  %89 = getelementptr inbounds nuw %struct.MuxStream, ptr %88, i32 0, i32 15
  %90 = load ptr, ptr %6, align 8, !tbaa !38
  %91 = getelementptr inbounds nuw %struct.OutputStream, ptr %90, i32 0, i32 5
  %92 = load ptr, ptr %91, align 8, !tbaa !104
  %93 = getelementptr inbounds nuw %struct.AVStream, ptr %92, i32 0, i32 5
  %94 = load i64, ptr %89, align 8
  %95 = load i64, ptr %93, align 8
  %96 = call i64 @av_rescale_q(i64 noundef %87, i64 %94, i64 %95) #12
  %97 = load ptr, ptr %6, align 8, !tbaa !38
  %98 = getelementptr inbounds nuw %struct.OutputStream, ptr %97, i32 0, i32 5
  %99 = load ptr, ptr %98, align 8, !tbaa !104
  %100 = getelementptr inbounds nuw %struct.AVStream, ptr %99, i32 0, i32 7
  store i64 %96, ptr %100, align 8, !tbaa !112
  br label %101

101:                                              ; preds = %84, %79
  %102 = load ptr, ptr %9, align 8, !tbaa !75
  %103 = getelementptr inbounds nuw %struct.MuxStream, ptr %102, i32 0, i32 7
  %104 = load i32, ptr %103, align 8, !tbaa !82
  %105 = icmp sge i32 %104, 0
  br i1 %105, label %106, label %117

106:                                              ; preds = %101
  %107 = load ptr, ptr %8, align 8, !tbaa !8
  %108 = getelementptr inbounds nuw %struct.Muxer, ptr %107, i32 0, i32 3
  %109 = load ptr, ptr %108, align 8, !tbaa !14
  %110 = load ptr, ptr %5, align 8, !tbaa !10
  %111 = getelementptr inbounds nuw %struct.OutputFile, ptr %110, i32 0, i32 1
  %112 = load i32, ptr %111, align 8, !tbaa !28
  %113 = load ptr, ptr %9, align 8, !tbaa !75
  %114 = getelementptr inbounds nuw %struct.MuxStream, ptr %113, i32 0, i32 7
  %115 = load i32, ptr %114, align 8, !tbaa !82
  %116 = call i32 @sch_mux_stream_ready(ptr noundef %109, i32 noundef %112, i32 noundef %115)
  store i32 %116, ptr %4, align 4
  store i32 1, ptr %13, align 4
  br label %118

117:                                              ; preds = %101
  store i32 0, ptr %4, align 4
  store i32 1, ptr %13, align 4
  br label %118

118:                                              ; preds = %117, %106, %77, %68
  call void @llvm.lifetime.end.p0(i64 4, ptr %10) #10
  call void @llvm.lifetime.end.p0(i64 8, ptr %9) #10
  call void @llvm.lifetime.end.p0(i64 8, ptr %8) #10
  %119 = load i32, ptr %4, align 4
  ret i32 %119
}