; Function Attrs: nounwind uwtable
define i32 @of_stream_init(ptr noundef readonly captures(none) %0, ptr noundef %1, ptr noundef %2) local_unnamed_addr #0 {
  %.not = icmp eq ptr %2, null
  br i1 %.not, label %32, label %4

4:                                                ; preds = %3
  %5 = getelementptr inbounds nuw i8, ptr %1, i64 40
  %6 = load ptr, ptr %5, align 8, !tbaa !86
  %7 = getelementptr inbounds nuw i8, ptr %6, i64 32
  %8 = load i32, ptr %7, align 8, !tbaa !114
  %9 = icmp slt i32 %8, 1
  br i1 %9, label %14, label %10

10:                                               ; preds = %4
  %11 = getelementptr inbounds nuw i8, ptr %6, i64 36
  %12 = load i32, ptr %11, align 4, !tbaa !115
  %13 = icmp slt i32 %12, 1
  br i1 %13, label %14, label %18

14:                                               ; preds = %10, %4
  %15 = getelementptr inbounds nuw i8, ptr %2, i64 84
  %16 = load i64, ptr %15, align 4
  %17 = tail call i64 @av_add_q(i64 %16, i64 4294967296) #12
  store i64 %17, ptr %7, align 8
  %.pre = load ptr, ptr %5, align 8, !tbaa !86
  br label %18

18:                                               ; preds = %14, %10
  %19 = phi ptr [ %.pre, %14 ], [ %6, %10 ]
  %20 = getelementptr inbounds nuw i8, ptr %19, i64 88
  %21 = getelementptr inbounds nuw i8, ptr %2, i64 100
  %22 = load i64, ptr %21, align 4
  store i64 %22, ptr %20, align 8
  %23 = load ptr, ptr %5, align 8, !tbaa !86
  %24 = getelementptr inbounds nuw i8, ptr %23, i64 72
  %25 = getelementptr inbounds nuw i8, ptr %2, i64 128
  %26 = load i64, ptr %25, align 8
  store i64 %26, ptr %24, align 8
  %27 = getelementptr inbounds nuw i8, ptr %1, i64 376
  %28 = load ptr, ptr %27, align 8, !tbaa !116
  %29 = tail call i32 @avcodec_parameters_from_context(ptr noundef %28, ptr noundef nonnull %2) #11
  %30 = icmp slt i32 %29, 0
  br i1 %30, label %31, label %32

31:                                               ; preds = %18
  tail call void (ptr, i32, ptr, ...) @av_log(ptr noundef nonnull %1, i32 noundef 8, ptr noundef nonnull @.str.8) #11
  br label %bsf_init.exit.thread

32:                                               ; preds = %18, %3
  %33 = getelementptr inbounds nuw i8, ptr %1, i64 416
  %34 = load ptr, ptr %33, align 8, !tbaa !95
  %.not.i = icmp eq ptr %34, null
  br i1 %.not.i, label %bsf_init.exit, label %35

35:                                               ; preds = %32
  %36 = getelementptr inbounds nuw i8, ptr %34, i64 24
  %37 = load ptr, ptr %36, align 8, !tbaa !117
  %38 = getelementptr inbounds nuw i8, ptr %1, i64 376
  %39 = load ptr, ptr %38, align 8, !tbaa !116
  %40 = tail call i32 @avcodec_parameters_copy(ptr noundef %37, ptr noundef %39) #11
  %41 = icmp slt i32 %40, 0
  br i1 %41, label %bsf_init.exit.thread, label %42

42:                                               ; preds = %35
  %43 = getelementptr inbounds nuw i8, ptr %34, i64 40
  %44 = getelementptr inbounds nuw i8, ptr %1, i64 40
  %45 = load ptr, ptr %44, align 8, !tbaa !86
  %46 = getelementptr inbounds nuw i8, ptr %45, i64 32
  %47 = load i64, ptr %46, align 8
  store i64 %47, ptr %43, align 8
  %48 = tail call i32 @av_bsf_init(ptr noundef nonnull %34) #11
  %49 = icmp slt i32 %48, 0
  br i1 %49, label %50, label %54

50:                                               ; preds = %42
  %51 = getelementptr inbounds nuw i8, ptr %34, i64 8
  %52 = load ptr, ptr %51, align 8, !tbaa !120
  %53 = load ptr, ptr %52, align 8, !tbaa !121
  tail call void (ptr, i32, ptr, ...) @av_log(ptr noundef nonnull %1, i32 noundef 16, ptr noundef nonnull @.str.34, ptr noundef %53) #11
  br label %bsf_init.exit.thread

54:                                               ; preds = %42
  %55 = load ptr, ptr %44, align 8, !tbaa !86
  %56 = getelementptr inbounds nuw i8, ptr %55, i64 16
  %57 = load ptr, ptr %56, align 8, !tbaa !87
  %58 = getelementptr inbounds nuw i8, ptr %34, i64 32
  %59 = load ptr, ptr %58, align 8, !tbaa !123
  %60 = tail call i32 @avcodec_parameters_copy(ptr noundef %57, ptr noundef %59) #11
  %61 = icmp slt i32 %60, 0
  br i1 %61, label %bsf_init.exit.thread, label %62

62:                                               ; preds = %54
  %63 = load ptr, ptr %44, align 8, !tbaa !86
  %64 = getelementptr inbounds nuw i8, ptr %63, i64 32
  %65 = getelementptr inbounds nuw i8, ptr %34, i64 48
  %66 = load i64, ptr %65, align 8
  store i64 %66, ptr %64, align 8
  %67 = tail call ptr @av_packet_alloc() #11
  %68 = getelementptr inbounds nuw i8, ptr %1, i64 424
  store ptr %67, ptr %68, align 8, !tbaa !96
  %.not28.i = icmp eq ptr %67, null
  br i1 %.not28.i, label %bsf_init.exit.thread, label %bsf_init.exit.thread36

bsf_init.exit:                                    ; preds = %32
  %69 = getelementptr inbounds nuw i8, ptr %1, i64 40
  %70 = load ptr, ptr %69, align 8, !tbaa !86
  %71 = getelementptr inbounds nuw i8, ptr %70, i64 16
  %72 = load ptr, ptr %71, align 8, !tbaa !87
  %73 = getelementptr inbounds nuw i8, ptr %1, i64 376
  %74 = load ptr, ptr %73, align 8, !tbaa !116
  %75 = tail call i32 @avcodec_parameters_copy(ptr noundef %72, ptr noundef %74) #11
  %76 = icmp slt i32 %75, 0
  br i1 %76, label %bsf_init.exit.thread, label %bsf_init.exit.thread36

bsf_init.exit.thread36:                           ; preds = %62, %bsf_init.exit
  %77 = getelementptr inbounds nuw i8, ptr %1, i64 552
  %78 = load i64, ptr %77, align 8, !tbaa !124
  %.not34 = icmp eq i64 %78, 0
  br i1 %.not34, label %88, label %79

79:                                               ; preds = %bsf_init.exit.thread36
  %80 = getelementptr inbounds nuw i8, ptr %1, i64 560
  %81 = getelementptr inbounds nuw i8, ptr %1, i64 40
  %82 = load ptr, ptr %81, align 8, !tbaa !86
  %83 = getelementptr inbounds nuw i8, ptr %82, i64 32
  %84 = load i64, ptr %80, align 8
  %85 = load i64, ptr %83, align 8
  %86 = tail call i64 @av_rescale_q(i64 noundef %78, i64 %84, i64 %85) #12
  %87 = getelementptr inbounds nuw i8, ptr %82, i64 48
  store i64 %86, ptr %87, align 8, !tbaa !125
  br label %88

88:                                               ; preds = %79, %bsf_init.exit.thread36
  %89 = getelementptr inbounds nuw i8, ptr %1, i64 512
  %90 = load i32, ptr %89, align 8, !tbaa !94
  %91 = icmp sgt i32 %90, -1
  br i1 %91, label %92, label %bsf_init.exit.thread

92:                                               ; preds = %88
  %93 = getelementptr inbounds nuw i8, ptr %0, i64 104
  %94 = load ptr, ptr %93, align 8, !tbaa !40
  %95 = getelementptr inbounds nuw i8, ptr %0, i64 8
  %96 = load i32, ptr %95, align 8, !tbaa !41
  %97 = tail call i32 @sch_mux_stream_ready(ptr noundef %94, i32 noundef %96, i32 noundef %90) #11
  br label %bsf_init.exit.thread

bsf_init.exit.thread:                             ; preds = %62, %54, %35, %50, %88, %bsf_init.exit, %92, %31
  %.0 = phi i32 [ %29, %31 ], [ %97, %92 ], [ %75, %bsf_init.exit ], [ 0, %88 ], [ %60, %54 ], [ %40, %35 ], [ %48, %50 ], [ -12, %62 ]
  ret i32 %.0
}